; Function Attrs: mustprogress nofree norecurse nosync nounwind willreturn memory(argmem: readwrite) uwtable
define internal range(i32 -1, 60) i32 @attlist1(ptr noundef captures(none) %0, i32 noundef %1, ptr readnone captures(none) %2, ptr readnone captures(none) %3, ptr readnone captures(none) %4) #2 {
  switch i32 %1, label %10 [
    i32 15, label %common.exit
    i32 17, label %6
    i32 18, label %common.exit.sink.split
    i32 41, label %common.exit.sink.split
  ]

6:                                                ; preds = %5
  %7 = getelementptr inbounds nuw i8, ptr %0, i64 20
  %8 = load i32, ptr %7, align 4, !tbaa !9
  %.not = icmp eq i32 %8, 0
  %9 = select i1 %.not, ptr @externalSubset1, ptr @internalSubset
  br label %common.exit.sink.split

10:                                               ; preds = %5
  %11 = getelementptr inbounds nuw i8, ptr %0, i64 20
  %12 = load i32, ptr %11, align 4, !tbaa !9
  %13 = icmp eq i32 %12, 0
  %14 = icmp eq i32 %1, 28
  %or.cond.i = and i1 %14, %13
  br i1 %or.cond.i, label %common.exit, label %common.exit.sink.split

common.exit.sink.split:                           ; preds = %10, %5, %5, %6
  %error.sink = phi ptr [ %9, %6 ], [ @attlist2, %5 ], [ @attlist2, %5 ], [ @error, %10 ]
  %.0.ph = phi i32 [ 33, %6 ], [ 22, %5 ], [ 22, %5 ], [ -1, %10 ]
  store ptr %error.sink, ptr %0, align 8, !tbaa !3
  br label %common.exit

common.exit:                                      ; preds = %common.exit.sink.split, %10, %5
  %.0 = phi i32 [ 33, %5 ], [ 59, %10 ], [ %.0.ph, %common.exit.sink.split ]
  ret i32 %.0
}